target datalayout = "e-m:e-p270:32:32-p271:32:32-p272:64:64-i64:64-i128:128-f80:128-n8:16:32:64-S128"
target triple = "x86_64-unknown-linux-gnu"

%"class.facebook::velox::cache::SsdRun" = type { i64 }
%"class.facebook::velox::cache::SsdPin" = type { ptr, %"class.facebook::velox::cache::SsdRun" }
%"class.facebook::velox::cache::SsdFile" = type <{ %"class.std::__cxx11::basic_string", i32, [4 x i8], %"class.std::shared_mutex", i32, i32, i8, [7 x i8], %"class.std::vector", %"class.std::vector.3", %"class.facebook::velox::cache::SsdFileTracker", %"class.std::vector.3", %"class.folly::F14FastMap", i32, [4 x i8], i64, %"class.std::unique_ptr", %"struct.facebook::velox::cache::SsdCacheStats", i64, ptr, %"struct.std::atomic", i32, i8, [3 x i8] }>
%"class.std::__cxx11::basic_string" = type { %"struct.std::__cxx11::basic_string<char>::_Alloc_hider", i64, %union.anon }
%"struct.std::__cxx11::basic_string<char>::_Alloc_hider" = type { ptr }
%union.anon = type { i64, [8 x i8] }
%"class.std::shared_mutex" = type { %"class.std::__shared_mutex_pthread" }
%"class.std::__shared_mutex_pthread" = type { %union.pthread_rwlock_t }
%union.pthread_rwlock_t = type { %struct.__pthread_rwlock_arch_t }
%struct.__pthread_rwlock_arch_t = type { i32, i32, i32, i32, i32, i32, i32, i32, i8, [7 x i8], i64, i32 }
%"class.std::vector" = type { %"struct.std::_Vector_base" }
%"struct.std::_Vector_base" = type { %"struct.std::_Vector_base<unsigned int, std::allocator<unsigned int>>::_Vector_impl" }
%"struct.std::_Vector_base<unsigned int, std::allocator<unsigned int>>::_Vector_impl" = type { %"struct.std::_Vector_base<unsigned int, std::allocator<unsigned int>>::_Vector_impl_data" }
%"struct.std::_Vector_base<unsigned int, std::allocator<unsigned int>>::_Vector_impl_data" = type { ptr, ptr, ptr }
%"class.facebook::velox::cache::SsdFileTracker" = type { %"class.std::vector.8", i64 }
%"class.std::vector.8" = type { %"struct.std::_Vector_base.9" }
%"struct.std::_Vector_base.9" = type { %"struct.std::_Vector_base<unsigned long, std::allocator<unsigned long>>::_Vector_impl" }
%"struct.std::_Vector_base<unsigned long, std::allocator<unsigned long>>::_Vector_impl" = type { %"struct.std::_Vector_base<unsigned long, std::allocator<unsigned long>>::_Vector_impl_data" }
%"struct.std::_Vector_base<unsigned long, std::allocator<unsigned long>>::_Vector_impl_data" = type { ptr, ptr, ptr }
%"class.std::vector.3" = type { %"struct.std::_Vector_base.4" }
%"struct.std::_Vector_base.4" = type { %"struct.std::_Vector_base<int, std::allocator<int>>::_Vector_impl" }
%"struct.std::_Vector_base<int, std::allocator<int>>::_Vector_impl" = type { %"struct.std::_Vector_base<int, std::allocator<int>>::_Vector_impl_data" }
%"struct.std::_Vector_base<int, std::allocator<int>>::_Vector_impl_data" = type { ptr, ptr, ptr }
%"class.folly::F14FastMap" = type { %"class.folly::f14::detail::F14VectorMapImpl" }
%"class.folly::f14::detail::F14VectorMapImpl" = type { %"class.folly::f14::detail::F14BasicMap" }
%"class.folly::f14::detail::F14BasicMap" = type { %"class.folly::f14::detail::F14Table" }
%"class.folly::f14::detail::F14Table" = type { %"class.folly::f14::detail::VectorContainerPolicy", ptr, i32, %"struct.folly::f14::detail::SizeAndPackedBegin" }
%"class.folly::f14::detail::VectorContainerPolicy" = type { ptr }
%"struct.folly::f14::detail::SizeAndPackedBegin" = type { i32 }
%"class.std::unique_ptr" = type { %"struct.std::__uniq_ptr_data" }
%"struct.std::__uniq_ptr_data" = type { %"class.std::__uniq_ptr_impl" }
%"class.std::__uniq_ptr_impl" = type { %"class.std::tuple" }
%"class.std::tuple" = type { %"struct.std::_Tuple_impl" }
%"struct.std::_Tuple_impl" = type { %"struct.std::_Head_base.19" }
%"struct.std::_Head_base.19" = type { ptr }
%"struct.facebook::velox::cache::SsdCacheStats" = type { i64, i64, i64, i64, i64, i64, i32, i32, i32, i32, i32, i32, i32, i32, i32, i32 }
%"struct.std::atomic" = type { %"struct.std::__atomic_base" }
%"struct.std::__atomic_base" = type { i64 }
%"class.std::lock_guard" = type { ptr }

; Function Attrs: mustprogress nounwind uwtable
define internal noundef i32 @_ZL18__gthread_active_pv() #4 {
entry:
  ret i32 1
}

; Function Attrs: mustprogress nounwind uwtable
define internal noundef i32 @_ZStL23__glibcxx_rwlock_unlockP16pthread_rwlock_t(ptr noundef %__rwlock) #4 {
entry:
  %retval = alloca i32, align 4
  %__rwlock.addr = alloca ptr, align 8
  store ptr %__rwlock, ptr %__rwlock.addr, align 8
  %call = call noundef i32 @_ZL18__gthread_active_pv()
  %tobool = icmp ne i32 %call, 0
  br i1 %tobool, label %if.then, label %if.else

if.then:                                          ; preds = %entry
  %0 = load ptr, ptr %__rwlock.addr, align 8
  %call1 = call i32 @pthread_rwlock_unlock(ptr noundef %0) #29
  store i32 %call1, ptr %retval, align 4
  br label %return

if.else:                                          ; preds = %entry
  store i32 0, ptr %retval, align 4
  br label %return

return:                                           ; preds = %if.else, %if.then
  %1 = load i32, ptr %retval, align 4
  ret i32 %1
}

; Function Attrs: mustprogress nounwind uwtable
define internal noundef i32 @_ZStL23__glibcxx_rwlock_wrlockP16pthread_rwlock_t(ptr noundef %__rwlock) #4 {
entry:
  %retval = alloca i32, align 4
  %__rwlock.addr = alloca ptr, align 8
  store ptr %__rwlock, ptr %__rwlock.addr, align 8
  %call = call noundef i32 @_ZL18__gthread_active_pv()
  %tobool = icmp ne i32 %call, 0
  br i1 %tobool, label %if.then, label %if.else

if.then:                                          ; preds = %entry
  %0 = load ptr, ptr %__rwlock.addr, align 8
  %call1 = call i32 @pthread_rwlock_wrlock(ptr noundef %0) #29
  store i32 %call1, ptr %retval, align 4
  br label %return

if.else:                                          ; preds = %entry
  store i32 0, ptr %retval, align 4
  br label %return

return:                                           ; preds = %if.else, %if.then
  %1 = load i32, ptr %retval, align 4
  ret i32 %1
}

; Function Attrs: mustprogress uwtable
define linkonce_odr void @_ZNSt22__shared_mutex_pthread6unlockEv(ptr noundef nonnull align 8 dereferenceable(56) %this) #2 comdat align 2 {
entry:
  %this.addr = alloca ptr, align 8
  %__ret = alloca i32, align 4
  store ptr %this, ptr %this.addr, align 8
  %this1 = load ptr, ptr %this.addr, align 8
  %_M_rwlock = getelementptr inbounds %"class.std::__shared_mutex_pthread", ptr %this1, i32 0, i32 0
  %call = call noundef i32 @_ZStL23__glibcxx_rwlock_unlockP16pthread_rwlock_t(ptr noundef %_M_rwlock)
  store i32 %call, ptr %__ret, align 4
  br label %do.body

do.body:                                          ; preds = %entry
  br label %do.end

do.end:                                           ; preds = %do.body
  ret void
}

; Function Attrs: mustprogress uwtable
define linkonce_odr void @_ZNSt22__shared_mutex_pthread4lockEv(ptr noundef nonnull align 8 dereferenceable(56) %this) #2 comdat align 2 {
entry:
  %this.addr = alloca ptr, align 8
  %__ret = alloca i32, align 4
  store ptr %this, ptr %this.addr, align 8
  %this1 = load ptr, ptr %this.addr, align 8
  %_M_rwlock = getelementptr inbounds %"class.std::__shared_mutex_pthread", ptr %this1, i32 0, i32 0
  %call = call noundef i32 @_ZStL23__glibcxx_rwlock_wrlockP16pthread_rwlock_t(ptr noundef %_M_rwlock)
  store i32 %call, ptr %__ret, align 4
  %0 = load i32, ptr %__ret, align 4
  %cmp = icmp eq i32 %0, 35
  br i1 %cmp, label %if.then, label %if.end

if.then:                                          ; preds = %entry
  call void @_ZSt20__throw_system_errori(i32 noundef 35) #31
  unreachable

if.end:                                           ; preds = %entry
  br label %do.body

do.body:                                          ; preds = %if.end
  br label %do.end

do.end:                                           ; preds = %do.body
  ret void
}

; Function Attrs: noreturn nounwind uwtable
define linkonce_odr hidden void @__clang_call_terminate(ptr noundef %0) #5 comdat {
  %2 = call ptr @__cxa_begin_catch(ptr %0) #29
  call void @_ZSt9terminatev() #30
  unreachable
}

; Function Attrs: mustprogress uwtable
define linkonce_odr void @_ZNSt12shared_mutex6unlockEv(ptr noundef nonnull align 8 dereferenceable(56) %this) #2 comdat align 2 {
entry:
  %this.addr = alloca ptr, align 8
  store ptr %this, ptr %this.addr, align 8
  %this1 = load ptr, ptr %this.addr, align 8
  %_M_impl = getelementptr inbounds %"class.std::shared_mutex", ptr %this1, i32 0, i32 0
  call void @_ZNSt22__shared_mutex_pthread6unlockEv(ptr noundef nonnull align 8 dereferenceable(56) %_M_impl)
  ret void
}

; Function Attrs: mustprogress uwtable
define linkonce_odr void @_ZNSt12shared_mutex4lockEv(ptr noundef nonnull align 8 dereferenceable(56) %this) #2 comdat align 2 {
entry:
  %this.addr = alloca ptr, align 8
  store ptr %this, ptr %this.addr, align 8
  %this1 = load ptr, ptr %this.addr, align 8
  %_M_impl = getelementptr inbounds %"class.std::shared_mutex", ptr %this1, i32 0, i32 0
  call void @_ZNSt22__shared_mutex_pthread4lockEv(ptr noundef nonnull align 8 dereferenceable(56) %_M_impl)
  ret void
}

; Function Attrs: mustprogress nounwind uwtable
define linkonce_odr void @_ZNSt10lock_guardISt12shared_mutexED2Ev(ptr noundef nonnull align 8 dereferenceable(8) %this) unnamed_addr #4 comdat align 2 personality ptr @__gxx_personality_v0 {
entry:
  %this.addr = alloca ptr, align 8
  store ptr %this, ptr %this.addr, align 8
  %this1 = load ptr, ptr %this.addr, align 8
  %_M_device = getelementptr inbounds %"class.std::lock_guard", ptr %this1, i32 0, i32 0
  %0 = load ptr, ptr %_M_device, align 8
  invoke void @_ZNSt12shared_mutex6unlockEv(ptr noundef nonnull align 8 dereferenceable(56) %0)
          to label %invoke.cont unwind label %terminate.lpad

invoke.cont:                                      ; preds = %entry
  ret void

terminate.lpad:                                   ; preds = %entry
  %1 = landingpad { ptr, i32 }
          catch ptr null
  %2 = extractvalue { ptr, i32 } %1, 0
  call void @__clang_call_terminate(ptr %2) #30
  unreachable
}

; Function Attrs: mustprogress nounwind uwtable
define linkonce_odr noundef nonnull align 4 dereferenceable(4) ptr @_ZNSt6vectorIiSaIiEEixEm(ptr noundef nonnull align 8 dereferenceable(24) %this, i64 noundef %__n) #4 comdat align 2 {
entry:
  %this.addr = alloca ptr, align 8
  %__n.addr = alloca i64, align 8
  store ptr %this, ptr %this.addr, align 8
  store i64 %__n, ptr %__n.addr, align 8
  %this1 = load ptr, ptr %this.addr, align 8
  %_M_impl = getelementptr inbounds %"struct.std::_Vector_base.4", ptr %this1, i32 0, i32 0
  %_M_start = getelementptr inbounds %"struct.std::_Vector_base<int, std::allocator<int>>::_Vector_impl_data", ptr %_M_impl, i32 0, i32 0
  %0 = load ptr, ptr %_M_start, align 8
  %1 = load i64, ptr %__n.addr, align 8
  %add.ptr = getelementptr inbounds i32, ptr %0, i64 %1
  ret ptr %add.ptr
}

; Function Attrs: mustprogress nounwind uwtable
define linkonce_odr noundef i32 @_ZN8facebook5velox5cache7SsdFile11regionIndexEm(i64 noundef %offset) #4 comdat align 2 {
entry:
  %offset.addr = alloca i64, align 8
  store i64 %offset, ptr %offset.addr, align 8
  %0 = load i64, ptr %offset.addr, align 8
  %div = udiv i64 %0, 67108864
  %conv = trunc i64 %div to i32
  ret i32 %conv
}

; Function Attrs: mustprogress uwtable
define linkonce_odr void @_ZNSt10lock_guardISt12shared_mutexEC2ERS0_(ptr noundef nonnull align 8 dereferenceable(8) %this, ptr noundef nonnull align 8 dereferenceable(56) %__m) unnamed_addr #2 comdat align 2 {
entry:
  %this.addr = alloca ptr, align 8
  %__m.addr = alloca ptr, align 8
  store ptr %this, ptr %this.addr, align 8
  store ptr %__m, ptr %__m.addr, align 8
  %this1 = load ptr, ptr %this.addr, align 8
  %_M_device = getelementptr inbounds %"class.std::lock_guard", ptr %this1, i32 0, i32 0
  %0 = load ptr, ptr %__m.addr, align 8
  store ptr %0, ptr %_M_device, align 8
  %_M_device2 = getelementptr inbounds %"class.std::lock_guard", ptr %this1, i32 0, i32 0
  %1 = load ptr, ptr %_M_device2, align 8
  call void @_ZNSt12shared_mutex4lockEv(ptr noundef nonnull align 8 dereferenceable(56) %1)
  ret void
}

; Function Attrs: mustprogress uwtable
define void @_ZN8facebook5velox5cache7SsdFile11unpinRegionEm(ptr noundef nonnull align 8 dereferenceable(381) %this, i64 noundef %offset) #2 align 2 personality ptr @__gxx_personality_v0 {
entry:
  %this.addr = alloca ptr, align 8
  %offset.addr = alloca i64, align 8
  %l = alloca %"class.std::lock_guard", align 8
  %count = alloca i32, align 4
  %exn.slot = alloca ptr, align 8
  %ehselector.slot = alloca i32, align 4
  store ptr %this, ptr %this.addr, align 8
  store i64 %offset, ptr %offset.addr, align 8
  %this1 = load ptr, ptr %this.addr, align 8
  %mutex_ = getelementptr inbounds %"class.facebook::velox::cache::SsdFile", ptr %this1, i32 0, i32 3
  call void @_ZNSt10lock_guardISt12shared_mutexEC2ERS0_(ptr noundef nonnull align 8 dereferenceable(8) %l, ptr noundef nonnull align 8 dereferenceable(56) %mutex_)
  %regionPins_ = getelementptr inbounds %"class.facebook::velox::cache::SsdFile", ptr %this1, i32 0, i32 11
  %0 = load i64, ptr %offset.addr, align 8
  %call = invoke noundef i32 @_ZN8facebook5velox5cache7SsdFile11regionIndexEm(i64 noundef %0)
          to label %invoke.cont unwind label %lpad

invoke.cont:                                      ; preds = %entry
  %conv = sext i32 %call to i64
  %call2 = call noundef nonnull align 4 dereferenceable(4) ptr @_ZNSt6vectorIiSaIiEEixEm(ptr noundef nonnull align 8 dereferenceable(24) %regionPins_, i64 noundef %conv) #29
  %1 = load i32, ptr %call2, align 4
  %dec = add nsw i32 %1, -1
  store i32 %dec, ptr %call2, align 4
  store i32 %dec, ptr %count, align 4
  %2 = load i32, ptr %count, align 4
  %cmp = icmp sge i32 %2, 0
  %lnot = xor i1 %cmp, true
  br i1 %lnot, label %if.then, label %if.end

if.then:                                          ; preds = %invoke.cont
  call void @llvm.trap()
  br label %if.end

lpad:                                             ; preds = %if.then5, %entry
  %3 = landingpad { ptr, i32 }
          cleanup
  %4 = extractvalue { ptr, i32 } %3, 0
  store ptr %4, ptr %exn.slot, align 8
  %5 = extractvalue { ptr, i32 } %3, 1
  store i32 %5, ptr %ehselector.slot, align 4
  call void @_ZNSt10lock_guardISt12shared_mutexED2Ev(ptr noundef nonnull align 8 dereferenceable(8) %l) #29
  br label %eh.resume

if.end:                                           ; preds = %if.then, %invoke.cont
  %suspended_ = getelementptr inbounds %"class.facebook::velox::cache::SsdFile", ptr %this1, i32 0, i32 6
  %6 = load i8, ptr %suspended_, align 8
  %tobool = trunc i8 %6 to i1
  br i1 %tobool, label %land.lhs.true, label %if.end8

land.lhs.true:                                    ; preds = %if.end
  %7 = load i32, ptr %count, align 4
  %cmp4 = icmp eq i32 %7, 0
  br i1 %cmp4, label %if.then5, label %if.end8

if.then5:                                         ; preds = %land.lhs.true
  %call7 = invoke noundef zeroext i1 @_ZN8facebook5velox5cache7SsdFile17growOrEvictLockedEv(ptr noundef nonnull align 8 dereferenceable(381) %this1)
          to label %invoke.cont6 unwind label %lpad

invoke.cont6:                                     ; preds = %if.then5
  br label %if.end8

if.end8:                                          ; preds = %invoke.cont6, %land.lhs.true, %if.end
  call void @_ZNSt10lock_guardISt12shared_mutexED2Ev(ptr noundef nonnull align 8 dereferenceable(8) %l) #29
  ret void

eh.resume:                                        ; preds = %lpad
  %exn = load ptr, ptr %exn.slot, align 8
  %sel = load i32, ptr %ehselector.slot, align 4
  %lpad.val = insertvalue { ptr, i32 } poison, ptr %exn, 0
  %lpad.val9 = insertvalue { ptr, i32 } %lpad.val, i32 %sel, 1
  resume { ptr, i32 } %lpad.val9
}

; Function Attrs: mustprogress nounwind uwtable
define linkonce_odr noundef i64 @_ZNK8facebook5velox5cache6SsdRun6offsetEv(ptr noundef nonnull align 8 dereferenceable(8) %this) #4 comdat align 2 {
entry:
  %this.addr = alloca ptr, align 8
  store ptr %this, ptr %this.addr, align 8
  %this1 = load ptr, ptr %this.addr, align 8
  %bits_ = getelementptr inbounds %"class.facebook::velox::cache::SsdRun", ptr %this1, i32 0, i32 0
  %0 = load i64, ptr %bits_, align 8
  %shr = lshr i64 %0, 23
  ret i64 %shr
}

; Function Attrs: mustprogress uwtable
define void @_ZN8facebook5velox5cache6SsdPin5clearEv(ptr noundef nonnull align 8 dereferenceable(16) %this) #2 align 2 {
entry:
  %this.addr = alloca ptr, align 8
  store ptr %this, ptr %this.addr, align 8
  %this1 = load ptr, ptr %this.addr, align 8
  %file_ = getelementptr inbounds %"class.facebook::velox::cache::SsdPin", ptr %this1, i32 0, i32 0
  %0 = load ptr, ptr %file_, align 8
  %tobool = icmp ne ptr %0, null
  br i1 %tobool, label %if.then, label %if.end

if.then:                                          ; preds = %entry
  %file_2 = getelementptr inbounds %"class.facebook::velox::cache::SsdPin", ptr %this1, i32 0, i32 0
  %1 = load ptr, ptr %file_2, align 8
  %run_ = getelementptr inbounds %"class.facebook::velox::cache::SsdPin", ptr %this1, i32 0, i32 1
  %call = call noundef i64 @_ZNK8facebook5velox5cache6SsdRun6offsetEv(ptr noundef nonnull align 8 dereferenceable(8) %run_)
  call void @_ZN8facebook5velox5cache7SsdFile11unpinRegionEm(ptr noundef nonnull align 8 dereferenceable(381) %1, i64 noundef %call)
  br label %if.end

if.end:                                           ; preds = %if.then, %entry
  %file_3 = getelementptr inbounds %"class.facebook::velox::cache::SsdPin", ptr %this1, i32 0, i32 0
  store ptr null, ptr %file_3, align 8
  ret void
}